target datalayout = "e-m:e-p270:32:32-p271:32:32-p272:64:64-i64:64-i128:128-f80:128-n8:16:32:64-S128"
target triple = "x86_64-pc-linux-gnu"

%struct.cJSON = type { ptr, ptr, ptr, i32, ptr, i32, double, ptr }

; Function Attrs: nounwind sspstrong uwtable
define internal void @sort_object(ptr noundef %0, i32 noundef %1) #0 {
  %3 = alloca ptr, align 8
  %4 = alloca i32, align 4
  store ptr %0, ptr %3, align 8, !tbaa !3
  store i32 %1, ptr %4, align 4, !tbaa !19
  %5 = load ptr, ptr %3, align 8, !tbaa !3
  %6 = icmp eq ptr %5, null
  br i1 %6, label %7, label %8

7:                                                ; preds = %2
  br label %16

8:                                                ; preds = %2
  %9 = load ptr, ptr %3, align 8, !tbaa !3
  %10 = getelementptr inbounds nuw %struct.cJSON, ptr %9, i32 0, i32 2
  %11 = load ptr, ptr %10, align 8, !tbaa !10
  %12 = load i32, ptr %4, align 4, !tbaa !19
  %13 = call ptr @sort_list(ptr noundef %11, i32 noundef %12)
  %14 = load ptr, ptr %3, align 8, !tbaa !3
  %15 = getelementptr inbounds nuw %struct.cJSON, ptr %14, i32 0, i32 2
  store ptr %13, ptr %15, align 8, !tbaa !10
  br label %16

16:                                               ; preds = %8, %7
  ret void
}

; Function Attrs: nounwind sspstrong uwtable
define void @cJSONUtils_SortObjectCaseSensitive(ptr noundef %0) #0 {
  %2 = alloca ptr, align 8
  store ptr %0, ptr %2, align 8, !tbaa !3
  %3 = load ptr, ptr %2, align 8, !tbaa !3
  call void @sort_object(ptr noundef %3, i32 noundef 1)
  ret void
}